target datalayout = "e-m:e-p270:32:32-p271:32:32-p272:64:64-i64:64-i128:128-f80:128-n8:16:32:64-S128"
target triple = "x86_64-pc-linux-gnu"

%struct.strbuf = type { i64, i64, ptr }
%struct.note_data = type { i32, i32, ptr, %struct.strbuf, ptr, i64, i64 }

@.str.44 = private unnamed_addr constant [16 x i8] c"builtin/notes.c\00", align 1
@.str.69 = private unnamed_addr constant [28 x i8] c"unable to write note object\00", align 1
@.str.70 = private unnamed_addr constant [39 x i8] c"the note contents have been left in %s\00", align 1
@.str.157 = private unnamed_addr constant [1 x i8] zeroinitializer, align 1
@git_gettext_enabled = external global i32, align 4

; Function Attrs: inlinehint nounwind uwtable
define internal ptr @_(ptr noundef %0) #3 {
  %2 = alloca ptr, align 8
  %3 = alloca ptr, align 8
  store ptr %0, ptr %3, align 8, !tbaa !11
  %4 = load ptr, ptr %3, align 8, !tbaa !11
  %5 = load i8, ptr %4, align 1, !tbaa !58
  %6 = icmp ne i8 %5, 0
  br i1 %6, label %8, label %7

7:                                                ; preds = %1
  store ptr @.str.157, ptr %2, align 8
  br label %16

8:                                                ; preds = %1
  %9 = load i32, ptr @git_gettext_enabled, align 4, !tbaa !4
  %10 = icmp ne i32 %9, 0
  br i1 %10, label %13, label %11

11:                                               ; preds = %8
  %12 = load ptr, ptr %3, align 8, !tbaa !11
  store ptr %12, ptr %2, align 8
  br label %16

13:                                               ; preds = %8
  %14 = load ptr, ptr %3, align 8, !tbaa !11
  %15 = call ptr @dcgettext(ptr noundef null, ptr noundef %14, i32 noundef 5) #11
  store ptr %15, ptr %2, align 8
  br label %16

16:                                               ; preds = %13, %11, %7
  %17 = load ptr, ptr %2, align 8
  ret ptr %17
}

; Function Attrs: inlinehint nounwind uwtable
define internal i32 @write_object_file(ptr noundef %0, i64 noundef %1, i32 noundef %2, ptr noundef %3) #3 {
  %5 = alloca ptr, align 8
  %6 = alloca i64, align 8
  %7 = alloca i32, align 4
  %8 = alloca ptr, align 8
  store ptr %0, ptr %5, align 8, !tbaa !15
  store i64 %1, ptr %6, align 8, !tbaa !42
  store i32 %2, ptr %7, align 4, !tbaa !4
  store ptr %3, ptr %8, align 8, !tbaa !34
  %9 = load ptr, ptr %5, align 8, !tbaa !15
  %10 = load i64, ptr %6, align 8, !tbaa !42
  %11 = load i32, ptr %7, align 4, !tbaa !4
  %12 = load ptr, ptr %8, align 8, !tbaa !34
  %13 = call i32 @write_object_file_flags(ptr noundef %9, i64 noundef %10, i32 noundef %11, ptr noundef %12, ptr noundef null, i32 noundef 0)
  ret i32 %13
}

; Function Attrs: nounwind uwtable
define internal void @write_note_data(ptr noundef %0, ptr noundef %1) #0 {
  %3 = alloca ptr, align 8
  %4 = alloca ptr, align 8
  %5 = alloca i32, align 4
  store ptr %0, ptr %3, align 8, !tbaa !68
  store ptr %1, ptr %4, align 8, !tbaa !34
  %6 = load ptr, ptr %3, align 8, !tbaa !68
  %7 = getelementptr inbounds nuw %struct.note_data, ptr %6, i32 0, i32 3
  %8 = getelementptr inbounds nuw %struct.strbuf, ptr %7, i32 0, i32 2
  %9 = load ptr, ptr %8, align 8, !tbaa !83
  %10 = load ptr, ptr %3, align 8, !tbaa !68
  %11 = getelementptr inbounds nuw %struct.note_data, ptr %10, i32 0, i32 3
  %12 = getelementptr inbounds nuw %struct.strbuf, ptr %11, i32 0, i32 1
  %13 = load i64, ptr %12, align 8, !tbaa !41
  %14 = load ptr, ptr %4, align 8, !tbaa !34
  %15 = call i32 @write_object_file(ptr noundef %9, i64 noundef %13, i32 noundef 3, ptr noundef %14)
  %16 = icmp ne i32 %15, 0
  br i1 %16, label %17, label %33

17:                                               ; preds = %2
  call void @llvm.lifetime.start.p0(i64 4, ptr %5) #11
  %18 = call ptr @_(ptr noundef @.str.69)
  %19 = call i32 (ptr, ...) @die_message(ptr noundef %18)
  store i32 %19, ptr %5, align 4, !tbaa !4
  %20 = load ptr, ptr %3, align 8, !tbaa !68
  %21 = getelementptr inbounds nuw %struct.note_data, ptr %20, i32 0, i32 2
  %22 = load ptr, ptr %21, align 8, !tbaa !81
  %23 = icmp ne ptr %22, null
  br i1 %23, label %24, label %30

24:                                               ; preds = %17
  %25 = call ptr @_(ptr noundef @.str.70)
  %26 = load ptr, ptr %3, align 8, !tbaa !68
  %27 = getelementptr inbounds nuw %struct.note_data, ptr %26, i32 0, i32 2
  %28 = load ptr, ptr %27, align 8, !tbaa !81
  %29 = call i32 (ptr, ...) @die_message(ptr noundef %25, ptr noundef %28)
  br label %30

30:                                               ; preds = %24, %17
  %31 = load i32, ptr %5, align 4, !tbaa !4
  %32 = call i32 @common_exit(ptr noundef @.str.44, i32 noundef 237, i32 noundef %31)
  call void @exit(i32 noundef %32) #14
  unreachable

33:                                               ; preds = %2
  ret void
}