; Function Attrs: nounwind uwtable
define internal fastcc void @write_note_data(ptr noundef nonnull readonly captures(none) %0, ptr noundef nonnull %1) unnamed_addr #0 {
  %3 = getelementptr inbounds nuw i8, ptr %0, i64 32
  %4 = load ptr, ptr %3, align 8, !tbaa !92
  %5 = getelementptr inbounds nuw i8, ptr %0, i64 24
  %6 = load i64, ptr %5, align 8, !tbaa !33
  %7 = tail call i32 @write_object_file_flags(ptr noundef %4, i64 noundef %6, i32 noundef 3, ptr noundef nonnull %1, ptr noundef null, i32 noundef 0) #16
  %.not = icmp eq i32 %7, 0
  br i1 %.not, label %23, label %8

8:                                                ; preds = %2
  %9 = load i32, ptr @git_gettext_enabled, align 4, !tbaa !24
  %.not4.i = icmp eq i32 %9, 0
  br i1 %.not4.i, label %_.exit, label %10

10:                                               ; preds = %8
  %11 = tail call ptr @dcgettext(ptr noundef null, ptr noundef nonnull @.str.69, i32 noundef 5) #16
  br label %_.exit

_.exit:                                           ; preds = %8, %10
  %.0.i = phi ptr [ %11, %10 ], [ @.str.69, %8 ]
  %12 = tail call i32 (ptr, ...) @die_message(ptr noundef %.0.i) #16
  %13 = getelementptr inbounds nuw i8, ptr %0, i64 8
  %14 = load ptr, ptr %13, align 8, !tbaa !90
  %.not5 = icmp eq ptr %14, null
  br i1 %.not5, label %21, label %15

15:                                               ; preds = %_.exit
  %16 = load i32, ptr @git_gettext_enabled, align 4, !tbaa !24
  %.not4.i6 = icmp eq i32 %16, 0
  br i1 %.not4.i6, label %_.exit8, label %17

17:                                               ; preds = %15
  %18 = tail call ptr @dcgettext(ptr noundef null, ptr noundef nonnull @.str.70, i32 noundef 5) #16
  %.pre = load ptr, ptr %13, align 8, !tbaa !90
  br label %_.exit8

_.exit8:                                          ; preds = %15, %17
  %19 = phi ptr [ %.pre, %17 ], [ %14, %15 ]
  %.0.i7 = phi ptr [ %18, %17 ], [ @.str.70, %15 ]
  %20 = tail call i32 (ptr, ...) @die_message(ptr noundef %.0.i7, ptr noundef %19) #16
  br label %21

21:                                               ; preds = %_.exit8, %_.exit
  %22 = tail call i32 @common_exit(ptr noundef nonnull @.str.44, i32 noundef 237, i32 noundef %12) #16
  tail call void @exit(i32 noundef %22) #17
  unreachable

23:                                               ; preds = %2
  ret void
}